Certificate:
    Data:
        Version: 3 (0x2)
        Serial Number: 4096 (0x1000)
    Signature Algorithm: sha256WithRSAEncryption
        Issuer: C=US, ST=Maryland, L=Baltimore, O=JHU, CN=Cam
        Validity
            Not Before: Nov 18 14:34:28 2021 GMT
            Not After : Nov 18 14:34:28 2022 GMT
        Subject: C=US, ST=Maryland, O=JHU, CN=SEEDPKILab2020.com
        Subject Public Key Info:
            Public Key Algorithm: rsaEncryption
                Public-Key: (1024 bit)
                Modulus:
                    00:a5:3d:c3:e8:83:b1:d5:ff:42:e6:13:f4:bb:f8:
                    96:d8:c0:e6:e0:f0:c1:49:a2:80:1a:86:2f:14:91:
                    0b:ee:b6:48:f4:7b:59:fa:e5:76:3f:48:09:2d:0b:
                    66:41:5b:34:d7:c8:0d:fc:a1:81:ab:19:58:88:5d:
                    d0:c2:09:1e:d1:4f:71:4f:0e:f6:81:5d:b5:98:b5:
                    01:33:c3:15:75:fa:d9:45:cc:39:09:27:1f:d0:d1:
                    04:46:14:ed:06:49:6e:55:2c:ba:5c:9b:6f:e1:3c:
                    84:95:a7:38:00:e3:da:e5:1e:c1:2f:d9:c4:02:b7:
                    d6:fb:60:92:bf:bb:ae:ec:a1
                Exponent: 65537 (0x10001)
        X509v3 extensions:
            X509v3 Basic Constraints: 
                CA:FALSE
            Netscape Comment: 
                OpenSSL Generated Certificate
            X509v3 Subject Key Identifier: 
                D8:63:69:B0:EE:E8:1A:5B:67:CB:1C:A7:69:45:C3:A4:8D:68:5F:10
            X509v3 Authority Key Identifier: 
                keyid:27:05:9B:2C:39:A3:DF:2E:48:03:63:19:1F:19:D0:53:C6:E9:D0:9C

    Signature Algorithm: sha256WithRSAEncryption
         82:41:b6:29:1d:e3:dd:49:f2:a8:fb:81:95:ec:db:6c:0e:2b:
         6b:07:ae:01:52:7c:ba:a0:1f:4d:a6:c0:c1:6b:0a:84:41:18:
         7e:a0:4e:33:a9:6a:33:c9:52:55:6b:c3:8e:01:90:85:f2:e5:
         bf:eb:81:a9:3e:15:4d:37:70:ec:9b:d7:84:27:bd:f1:36:81:
         8f:32:e7:2c:1d:55:39:e1:15:bc:00:08:81:37:ee:48:ba:ea:
         57:9a:6e:29:00:73:6b:a5:b9:a7:f8:b9:5b:2c:be:34:d7:8d:
         a4:09:d0:b6:11:52:d3:d2:4c:66:a6:c4:0c:8c:af:77:d6:71:
         d8:ba:28:c2:69:c1:fa:5f:1a:03:93:7d:57:77:3c:46:c9:2a:
         ae:28:19:ad:46:55:0e:f6:2d:5f:0c:c9:1e:52:ce:df:db:35:
         2a:93:d4:80:c6:b5:f3:17:3d:cf:1f:c0:1c:c6:e9:f6:d8:d4:
         85:3c:43:4d:af:d6:16:82:55:32:45:09:93:e7:17:15:49:31:
         f2:a9:58:c9:ec:a3:3c:24:e5:c1:c1:05:d5:1b:89:e0:6c:07:
         72:74:2c:ad:24:08:ef:f1:7c:ef:0a:89:87:71:f9:28:b4:1f:
         62:0a:e0:6e:1a:64:c7:60:dd:b8:b3:c7:15:87:8e:f0:74:3f:
         70:9e:74:9e
-----BEGIN CERTIFICATE-----
MIIDDjCCAfagAwIBAgICEAAwDQYJKoZIhvcNAQELBQAwUDELMAkGA1UEBhMCVVMx
ETAPBgNVBAgMCE1hcnlsYW5kMRIwEAYDVQQHDAlCYWx0aW1vcmUxDDAKBgNVBAoM
A0pIVTEMMAoGA1UEAwwDQ2FtMB4XDTIxMTExODE0MzQyOFoXDTIyMTExODE0MzQy
OFowSzELMAkGA1UEBhMCVVMxETAPBgNVBAgMCE1hcnlsYW5kMQwwCgYDVQQKDANK
SFUxGzAZBgNVBAMMElNFRURQS0lMYWIyMDIwLmNvbTCBnzANBgkqhkiG9w0BAQEF
AAOBjQAwgYkCgYEApT3D6IOx1f9C5hP0u/iW2MDm4PDBSaKAGoYvFJEL7rZI9HtZ
+uV2P0gJLQtmQVs018gN/KGBqxlYiF3Qwgke0U9xTw72gV21mLUBM8MVdfrZRcw5
CScf0NEERhTtBkluVSy6XJtv4TyElac4AOPa5R7BL9nEArfW+2CSv7uu7KECAwEA
AaN7MHkwCQYDVR0TBAIwADAsBglghkgBhvhCAQ0EHxYdT3BlblNTTCBHZW5lcmF0
ZWQgQ2VydGlmaWNhdGUwHQYDVR0OBBYEFNhjabDu6BpbZ8scp2lFw6SNaF8QMB8G
A1UdIwQYMBaAFCcFmyw5o98uSANjGR8Z0FPG6dCcMA0GCSqGSIb3DQEBCwUAA4IB
AQCCQbYpHePdSfKo+4GV7NtsDitrB64BUny6oB9NpsDBawqEQRh+oE4zqWozyVJV
a8OOAZCF8uW/64GpPhVNN3Dsm9eEJ73xNoGPMucsHVU54RW8AAiBN+5IuupXmm4p
AHNrpbmn+LlbLL40142kCdC2EVLT0kxmpsQMjK931nHYuijCacH6XxoDk31XdzxG
ySquKBmtRlUO9i1fDMkeUs7f2zUqk9SAxrXzFz3PH8Acxun22NSFPENNr9YWglUy
RQmT5xcVSTHyqVjJ7KM8JOXBwQXVG4ngbAdydCytJAjv8XzvComHcfkotB9iCuBu
GmTHYN24s8cVh47wdD9wnnSe
-----END CERTIFICATE-----
